target datalayout = "e-m:e-p270:32:32-p271:32:32-p272:64:64-i64:64-i128:128-f80:128-n8:16:32:64-S128"
target triple = "x86_64-pc-linux-gnu"

%class.btCollisionDispatcher = type { %class.btDispatcher, i32, [4 x i8], %class.btAlignedObjectArray, ptr, ptr, ptr, [36 x [36 x ptr]], [36 x [36 x ptr]], ptr }
%class.btDispatcher = type { ptr }
%class.btAlignedObjectArray = type <{ [4 x i8], i32, i32, [4 x i8], ptr, i8, [7 x i8] }>
%struct.btCollisionObjectWrapper = type { ptr, ptr, ptr, ptr, ptr, i32, i32 }
%struct.btCollisionAlgorithmConstructionInfo = type { ptr, ptr }
%class.btCollisionShape = type { ptr, i32, ptr, i32, i32 }

; Function Attrs: mustprogress nounwind uwtable
define linkonce_odr dso_local noundef i32 @_ZNK16btCollisionShape12getShapeTypeEv(ptr noundef nonnull align 8 dereferenceable(32) %0) #1 comdat align 2 {
  %2 = alloca ptr, align 8
  store ptr %0, ptr %2, align 8, !tbaa !112
  %3 = load ptr, ptr %2, align 8
  %4 = getelementptr inbounds nuw %class.btCollisionShape, ptr %3, i32 0, i32 1
  %5 = load i32, ptr %4, align 8, !tbaa !113
  ret i32 %5
}

; Function Attrs: inlinehint mustprogress nounwind uwtable
define linkonce_odr dso_local noundef ptr @_ZNK24btCollisionObjectWrapper17getCollisionShapeEv(ptr noundef nonnull align 8 dereferenceable(48) %0) #3 comdat align 2 {
  %2 = alloca ptr, align 8
  store ptr %0, ptr %2, align 8, !tbaa !99
  %3 = load ptr, ptr %2, align 8
  %4 = getelementptr inbounds nuw %struct.btCollisionObjectWrapper, ptr %3, i32 0, i32 1
  %5 = load ptr, ptr %4, align 8, !tbaa !109
  ret ptr %5
}

; Function Attrs: mustprogress nounwind uwtable
define linkonce_odr dso_local void @_ZN36btCollisionAlgorithmConstructionInfoC2Ev(ptr noundef nonnull align 8 dereferenceable(16) %0) unnamed_addr #1 comdat align 2 {
  %2 = alloca ptr, align 8
  store ptr %0, ptr %2, align 8, !tbaa !107
  %3 = load ptr, ptr %2, align 8
  %4 = getelementptr inbounds nuw %struct.btCollisionAlgorithmConstructionInfo, ptr %3, i32 0, i32 0
  store ptr null, ptr %4, align 8, !tbaa !103
  %5 = getelementptr inbounds nuw %struct.btCollisionAlgorithmConstructionInfo, ptr %3, i32 0, i32 1
  store ptr null, ptr %5, align 8, !tbaa !105
  ret void
}

; Function Attrs: mustprogress uwtable
define dso_local noundef ptr @_ZN21btCollisionDispatcher13findAlgorithmEPK24btCollisionObjectWrapperS2_P20btPersistentManifold22ebtDispatcherQueryType(ptr noundef nonnull align 8 dereferenceable(20816) %0, ptr noundef %1, ptr noundef %2, ptr noundef %3, i32 noundef %4) unnamed_addr #2 align 2 {
  %6 = alloca ptr, align 8
  %7 = alloca ptr, align 8
  %8 = alloca ptr, align 8
  %9 = alloca ptr, align 8
  %10 = alloca i32, align 4
  %11 = alloca %struct.btCollisionAlgorithmConstructionInfo, align 8
  %12 = alloca ptr, align 8
  store ptr %0, ptr %6, align 8, !tbaa !12
  store ptr %1, ptr %7, align 8, !tbaa !99
  store ptr %2, ptr %8, align 8, !tbaa !99
  store ptr %3, ptr %9, align 8, !tbaa !61
  store i32 %4, ptr %10, align 4, !tbaa !101
  %13 = load ptr, ptr %6, align 8
  call void @llvm.lifetime.start.p0(i64 16, ptr %11) #11
  call void @_ZN36btCollisionAlgorithmConstructionInfoC2Ev(ptr noundef nonnull align 8 dereferenceable(16) %11)
  %14 = getelementptr inbounds nuw %struct.btCollisionAlgorithmConstructionInfo, ptr %11, i32 0, i32 0
  store ptr %13, ptr %14, align 8, !tbaa !103
  %15 = load ptr, ptr %9, align 8, !tbaa !61
  %16 = getelementptr inbounds nuw %struct.btCollisionAlgorithmConstructionInfo, ptr %11, i32 0, i32 1
  store ptr %15, ptr %16, align 8, !tbaa !105
  call void @llvm.lifetime.start.p0(i64 8, ptr %12) #11
  store ptr null, ptr %12, align 8, !tbaa !106
  %17 = load i32, ptr %10, align 4, !tbaa !101
  %18 = icmp eq i32 %17, 1
  br i1 %18, label %19, label %38

19:                                               ; preds = %5
  %20 = getelementptr inbounds nuw %class.btCollisionDispatcher, ptr %13, i32 0, i32 7
  %21 = load ptr, ptr %7, align 8, !tbaa !99
  %22 = call noundef ptr @_ZNK24btCollisionObjectWrapper17getCollisionShapeEv(ptr noundef nonnull align 8 dereferenceable(48) %21)
  %23 = call noundef i32 @_ZNK16btCollisionShape12getShapeTypeEv(ptr noundef nonnull align 8 dereferenceable(32) %22)
  %24 = sext i32 %23 to i64
  %25 = getelementptr inbounds [36 x [36 x ptr]], ptr %20, i64 0, i64 %24
  %26 = load ptr, ptr %8, align 8, !tbaa !99
  %27 = call noundef ptr @_ZNK24btCollisionObjectWrapper17getCollisionShapeEv(ptr noundef nonnull align 8 dereferenceable(48) %26)
  %28 = call noundef i32 @_ZNK16btCollisionShape12getShapeTypeEv(ptr noundef nonnull align 8 dereferenceable(32) %27)
  %29 = sext i32 %28 to i64
  %30 = getelementptr inbounds [36 x ptr], ptr %25, i64 0, i64 %29
  %31 = load ptr, ptr %30, align 8, !tbaa !29
  %32 = load ptr, ptr %7, align 8, !tbaa !99
  %33 = load ptr, ptr %8, align 8, !tbaa !99
  %34 = load ptr, ptr %31, align 8, !tbaa !16
  %35 = getelementptr inbounds ptr, ptr %34, i64 2
  %36 = load ptr, ptr %35, align 8
  %37 = call noundef ptr %36(ptr noundef nonnull align 8 dereferenceable(9) %31, ptr noundef nonnull align 8 dereferenceable(16) %11, ptr noundef %32, ptr noundef %33)
  store ptr %37, ptr %12, align 8, !tbaa !106
  br label %57

38:                                               ; preds = %5
  %39 = getelementptr inbounds nuw %class.btCollisionDispatcher, ptr %13, i32 0, i32 8
  %40 = load ptr, ptr %7, align 8, !tbaa !99
  %41 = call noundef ptr @_ZNK24btCollisionObjectWrapper17getCollisionShapeEv(ptr noundef nonnull align 8 dereferenceable(48) %40)
  %42 = call noundef i32 @_ZNK16btCollisionShape12getShapeTypeEv(ptr noundef nonnull align 8 dereferenceable(32) %41)
  %43 = sext i32 %42 to i64
  %44 = getelementptr inbounds [36 x [36 x ptr]], ptr %39, i64 0, i64 %43
  %45 = load ptr, ptr %8, align 8, !tbaa !99
  %46 = call noundef ptr @_ZNK24btCollisionObjectWrapper17getCollisionShapeEv(ptr noundef nonnull align 8 dereferenceable(48) %45)
  %47 = call noundef i32 @_ZNK16btCollisionShape12getShapeTypeEv(ptr noundef nonnull align 8 dereferenceable(32) %46)
  %48 = sext i32 %47 to i64
  %49 = getelementptr inbounds [36 x ptr], ptr %44, i64 0, i64 %48
  %50 = load ptr, ptr %49, align 8, !tbaa !29
  %51 = load ptr, ptr %7, align 8, !tbaa !99
  %52 = load ptr, ptr %8, align 8, !tbaa !99
  %53 = load ptr, ptr %50, align 8, !tbaa !16
  %54 = getelementptr inbounds ptr, ptr %53, i64 2
  %55 = load ptr, ptr %54, align 8
  %56 = call noundef ptr %55(ptr noundef nonnull align 8 dereferenceable(9) %50, ptr noundef nonnull align 8 dereferenceable(16) %11, ptr noundef %51, ptr noundef %52)
  store ptr %56, ptr %12, align 8, !tbaa !106
  br label %57

57:                                               ; preds = %38, %19
  %58 = load ptr, ptr %12, align 8, !tbaa !106
  call void @llvm.lifetime.end.p0(i64 8, ptr %12) #11
  call void @llvm.lifetime.end.p0(i64 16, ptr %11) #11
  ret ptr %58
}