; Function Attrs: mustprogress uwtable
define dso_local noundef ptr @_ZN21btCollisionDispatcher13findAlgorithmEPK24btCollisionObjectWrapperS2_P20btPersistentManifold22ebtDispatcherQueryType(ptr noundef nonnull align 8 dereferenceable(20816) %0, ptr noundef %1, ptr noundef %2, ptr noundef %3, i32 noundef %4) unnamed_addr #0 align 2 {
  %6 = alloca %struct.btCollisionAlgorithmConstructionInfo, align 8
  call void @llvm.lifetime.start.p0(i64 16, ptr nonnull %6) #11
  store ptr %0, ptr %6, align 8, !tbaa !93
  %7 = getelementptr inbounds nuw i8, ptr %6, i64 8
  store ptr %3, ptr %7, align 8, !tbaa !96
  %8 = icmp eq i32 %4, 1
  %9 = getelementptr inbounds nuw i8, ptr %1, i64 8
  %10 = load ptr, ptr %9, align 8, !tbaa !54
  %11 = getelementptr inbounds nuw i8, ptr %10, i64 8
  %12 = load i32, ptr %11, align 8, !tbaa !97
  %13 = sext i32 %12 to i64
  %14 = getelementptr inbounds nuw i8, ptr %2, i64 8
  %15 = load ptr, ptr %14, align 8, !tbaa !54
  %16 = getelementptr inbounds nuw i8, ptr %15, i64 8
  %17 = load i32, ptr %16, align 8, !tbaa !97
  %18 = sext i32 %17 to i64
  %. = select i1 %8, i64 72, i64 10440
  %19 = getelementptr inbounds nuw i8, ptr %0, i64 %.
  %20 = getelementptr inbounds [36 x [36 x ptr]], ptr %19, i64 0, i64 %13, i64 %18
  %21 = load ptr, ptr %20, align 8, !tbaa !29
  %22 = load ptr, ptr %21, align 8, !tbaa !4
  %23 = getelementptr inbounds nuw i8, ptr %22, i64 16
  %24 = load ptr, ptr %23, align 8
  %25 = call noundef ptr %24(ptr noundef nonnull align 8 dereferenceable(9) %21, ptr noundef nonnull align 8 dereferenceable(16) %6, ptr noundef nonnull %1, ptr noundef nonnull %2)
  call void @llvm.lifetime.end.p0(i64 16, ptr nonnull %6) #11
  ret ptr %25
}